target datalayout = "e-m:e-p270:32:32-p271:32:32-p272:64:64-i64:64-i128:128-f80:128-n8:16:32:64-S128"
target triple = "x86_64-pc-linux-gnu"

%struct.Query = type { i32, i32, i32, i64, i8, ptr, i32, i8, i8, i8, i8, i8, i8, i8, i8, i8, i8, i8, ptr, ptr, ptr, ptr, ptr, i32, ptr, ptr, i32, ptr, ptr, ptr, ptr, ptr, i8, ptr, ptr, ptr, ptr, ptr, ptr, ptr, i32, ptr, ptr, ptr, ptr, i32, i32 }
%struct.Node = type { i32 }
%struct.RowMarkClause = type { i32, i32, i32, i32, i8 }

; Function Attrs: inlinehint nounwind uwtable
define internal ptr @newNode(i64 noundef %0, i32 noundef %1) #3 {
  %3 = alloca i64, align 8
  %4 = alloca i32, align 4
  %5 = alloca ptr, align 8
  store i64 %0, ptr %3, align 8
  store i32 %1, ptr %4, align 4
  call void @llvm.lifetime.start.p0(i64 8, ptr %5) #8
  %6 = load i64, ptr %3, align 8
  %7 = call ptr @palloc0(i64 noundef %6)
  store ptr %7, ptr %5, align 8
  %8 = load i32, ptr %4, align 4
  %9 = load ptr, ptr %5, align 8
  %10 = getelementptr inbounds nuw %struct.Node, ptr %9, i32 0, i32 0
  store i32 %8, ptr %10, align 4
  %11 = load ptr, ptr %5, align 8
  call void @llvm.lifetime.end.p0(i64 8, ptr %5) #8
  ret ptr %11
}

; Function Attrs: nounwind uwtable
define dso_local void @applyLockingClause(ptr noundef %0, i32 noundef %1, i32 noundef %2, i32 noundef %3, i1 noundef zeroext %4) #0 {
  %6 = alloca ptr, align 8
  %7 = alloca i32, align 4
  %8 = alloca i32, align 4
  %9 = alloca i32, align 4
  %10 = alloca i8, align 1
  %11 = alloca ptr, align 8
  %12 = alloca i32, align 4
  store ptr %0, ptr %6, align 8
  store i32 %1, ptr %7, align 4
  store i32 %2, ptr %8, align 4
  store i32 %3, ptr %9, align 4
  %13 = zext i1 %4 to i8
  store i8 %13, ptr %10, align 1
  call void @llvm.lifetime.start.p0(i64 8, ptr %11) #8
  %14 = load i8, ptr %10, align 1, !range !4, !noundef !5
  %15 = trunc i8 %14 to i1
  br i1 %15, label %19, label %16

16:                                               ; preds = %5
  %17 = load ptr, ptr %6, align 8
  %18 = getelementptr inbounds nuw %struct.Query, ptr %17, i32 0, i32 14
  store i8 1, ptr %18, align 1
  br label %19

19:                                               ; preds = %16, %5
  %20 = load ptr, ptr %6, align 8
  %21 = load i32, ptr %7, align 4
  %22 = call ptr @get_parse_rowmark(ptr noundef %20, i32 noundef %21)
  store ptr %22, ptr %11, align 8
  %23 = icmp ne ptr %22, null
  br i1 %23, label %24, label %66

24:                                               ; preds = %19
  %25 = load ptr, ptr %11, align 8
  %26 = getelementptr inbounds nuw %struct.RowMarkClause, ptr %25, i32 0, i32 2
  %27 = load i32, ptr %26, align 4
  %28 = load i32, ptr %8, align 4
  %29 = icmp ugt i32 %27, %28
  br i1 %29, label %30, label %34

30:                                               ; preds = %24
  %31 = load ptr, ptr %11, align 8
  %32 = getelementptr inbounds nuw %struct.RowMarkClause, ptr %31, i32 0, i32 2
  %33 = load i32, ptr %32, align 4
  br label %36

34:                                               ; preds = %24
  %35 = load i32, ptr %8, align 4
  br label %36

36:                                               ; preds = %34, %30
  %37 = phi i32 [ %33, %30 ], [ %35, %34 ]
  %38 = load ptr, ptr %11, align 8
  %39 = getelementptr inbounds nuw %struct.RowMarkClause, ptr %38, i32 0, i32 2
  store i32 %37, ptr %39, align 4
  %40 = load ptr, ptr %11, align 8
  %41 = getelementptr inbounds nuw %struct.RowMarkClause, ptr %40, i32 0, i32 3
  %42 = load i32, ptr %41, align 4
  %43 = load i32, ptr %9, align 4
  %44 = icmp ugt i32 %42, %43
  br i1 %44, label %45, label %49

45:                                               ; preds = %36
  %46 = load ptr, ptr %11, align 8
  %47 = getelementptr inbounds nuw %struct.RowMarkClause, ptr %46, i32 0, i32 3
  %48 = load i32, ptr %47, align 4
  br label %51

49:                                               ; preds = %36
  %50 = load i32, ptr %9, align 4
  br label %51

51:                                               ; preds = %49, %45
  %52 = phi i32 [ %48, %45 ], [ %50, %49 ]
  %53 = load ptr, ptr %11, align 8
  %54 = getelementptr inbounds nuw %struct.RowMarkClause, ptr %53, i32 0, i32 3
  store i32 %52, ptr %54, align 4
  %55 = load i8, ptr %10, align 1, !range !4, !noundef !5
  %56 = trunc i8 %55 to i1
  %57 = zext i1 %56 to i32
  %58 = load ptr, ptr %11, align 8
  %59 = getelementptr inbounds nuw %struct.RowMarkClause, ptr %58, i32 0, i32 4
  %60 = load i8, ptr %59, align 4, !range !4, !noundef !5
  %61 = trunc i8 %60 to i1
  %62 = zext i1 %61 to i32
  %63 = and i32 %62, %57
  %64 = icmp ne i32 %63, 0
  %65 = zext i1 %64 to i8
  store i8 %65, ptr %59, align 4
  store i32 1, ptr %12, align 4
  br label %89

66:                                               ; preds = %19
  %67 = call ptr @newNode(i64 noundef 20, i32 noundef 109)
  store ptr %67, ptr %11, align 8
  %68 = load i32, ptr %7, align 4
  %69 = load ptr, ptr %11, align 8
  %70 = getelementptr inbounds nuw %struct.RowMarkClause, ptr %69, i32 0, i32 1
  store i32 %68, ptr %70, align 4
  %71 = load i32, ptr %8, align 4
  %72 = load ptr, ptr %11, align 8
  %73 = getelementptr inbounds nuw %struct.RowMarkClause, ptr %72, i32 0, i32 2
  store i32 %71, ptr %73, align 4
  %74 = load i32, ptr %9, align 4
  %75 = load ptr, ptr %11, align 8
  %76 = getelementptr inbounds nuw %struct.RowMarkClause, ptr %75, i32 0, i32 3
  store i32 %74, ptr %76, align 4
  %77 = load i8, ptr %10, align 1, !range !4, !noundef !5
  %78 = trunc i8 %77 to i1
  %79 = load ptr, ptr %11, align 8
  %80 = getelementptr inbounds nuw %struct.RowMarkClause, ptr %79, i32 0, i32 4
  %81 = zext i1 %78 to i8
  store i8 %81, ptr %80, align 4
  %82 = load ptr, ptr %6, align 8
  %83 = getelementptr inbounds nuw %struct.Query, ptr %82, i32 0, i32 41
  %84 = load ptr, ptr %83, align 8
  %85 = load ptr, ptr %11, align 8
  %86 = call ptr @lappend(ptr noundef %84, ptr noundef %85)
  %87 = load ptr, ptr %6, align 8
  %88 = getelementptr inbounds nuw %struct.Query, ptr %87, i32 0, i32 41
  store ptr %86, ptr %88, align 8
  store i32 0, ptr %12, align 4
  br label %89

89:                                               ; preds = %66, %51
  call void @llvm.lifetime.end.p0(i64 8, ptr %11) #8
  %90 = load i32, ptr %12, align 4
  switch i32 %90, label %92 [
    i32 0, label %91
    i32 1, label %91
  ]

91:                                               ; preds = %89, %89
  ret void

92:                                               ; preds = %89
  unreachable
}