; Function Attrs: nounwind uwtable
define dso_local void @applyLockingClause(ptr noundef %0, i32 noundef %1, i32 noundef %2, i32 noundef %3, i1 noundef zeroext %4) local_unnamed_addr #0 {
  %6 = zext i1 %4 to i8
  br i1 %4, label %9, label %7

7:                                                ; preds = %5
  %8 = getelementptr inbounds nuw i8, ptr %0, i64 51
  store i8 1, ptr %8, align 1
  br label %9

9:                                                ; preds = %7, %5
  %10 = tail call ptr @get_parse_rowmark(ptr noundef %0, i32 noundef %1) #11
  %.not = icmp eq ptr %10, null
  br i1 %.not, label %22, label %11

11:                                               ; preds = %9
  %12 = getelementptr inbounds nuw i8, ptr %10, i64 8
  %13 = load i32, ptr %12, align 4
  %. = tail call i32 @llvm.umax.i32(i32 %13, i32 %2)
  store i32 %., ptr %12, align 4
  %14 = getelementptr inbounds nuw i8, ptr %10, i64 12
  %15 = load i32, ptr %14, align 4
  %16 = tail call i32 @llvm.umax.i32(i32 %15, i32 %3)
  store i32 %16, ptr %14, align 4
  %17 = getelementptr inbounds nuw i8, ptr %10, i64 16
  %18 = load i8, ptr %17, align 4, !range !5, !noundef !4
  %19 = icmp ne i8 %18, 0
  %20 = and i1 %4, %19
  %21 = zext i1 %20 to i8
  store i8 %21, ptr %17, align 4
  br label %31

22:                                               ; preds = %9
  %23 = tail call noundef ptr @palloc0(i64 noundef 20) #11
  store i32 109, ptr %23, align 4
  %24 = getelementptr inbounds nuw i8, ptr %23, i64 4
  store i32 %1, ptr %24, align 4
  %25 = getelementptr inbounds nuw i8, ptr %23, i64 8
  store i32 %2, ptr %25, align 4
  %26 = getelementptr inbounds nuw i8, ptr %23, i64 12
  store i32 %3, ptr %26, align 4
  %27 = getelementptr inbounds nuw i8, ptr %23, i64 16
  store i8 %6, ptr %27, align 4
  %28 = getelementptr inbounds nuw i8, ptr %0, i64 240
  %29 = load ptr, ptr %28, align 8
  %30 = tail call ptr @lappend(ptr noundef %29, ptr noundef nonnull %23) #11
  store ptr %30, ptr %28, align 8
  br label %31

31:                                               ; preds = %22, %11
  ret void
}